target datalayout = "e-m:e-p270:32:32-p271:32:32-p272:64:64-i64:64-i128:128-f80:128-n8:16:32:64-S128"
target triple = "x86_64-pc-linux-gnu"

%struct.jpeg_compress_struct = type { ptr, ptr, ptr, ptr, i32, i32, ptr, i32, i32, i32, i32, double, i32, i32, i32, ptr, [4 x ptr], [4 x ptr], [4 x ptr], [16 x i8], [16 x i8], [16 x i8], i32, ptr, i32, i32, i32, i32, i32, i32, i32, i32, i32, i8, i8, i8, i16, i16, i32, i32, i32, i32, i32, i32, i32, [4 x ptr], i32, i32, i32, [10 x i32], i32, i32, i32, i32, ptr, ptr, ptr, ptr, ptr, ptr, ptr, ptr, ptr, ptr, i32 }
%struct.jpeg_error_mgr = type { ptr, ptr, ptr, ptr, ptr, i32, %union.anon, i32, i64, ptr, i32, ptr, i32, i32 }
%union.anon = type { [8 x i32], [48 x i8] }
%struct.jpeg_destination_mgr = type { ptr, i64, ptr, ptr, ptr }
%struct.jpeg_memory_mgr = type { ptr, ptr, ptr, ptr, ptr, ptr, ptr, ptr, ptr, ptr, ptr, i64, i64 }
%struct.jpeg_marker_writer = type { ptr, ptr, ptr, ptr, ptr, ptr, ptr }
%struct.my_coef_controller = type { %struct.jpeg_c_coef_controller, i32, i32, i32, i32, ptr, [10 x ptr] }
%struct.jpeg_c_coef_controller = type { ptr, ptr }

; Function Attrs: nounwind uwtable
define internal void @transencode_coef_controller(ptr noundef %0, ptr noundef %1) #0 {
  %3 = alloca ptr, align 8
  %4 = alloca ptr, align 8
  %5 = alloca ptr, align 8
  %6 = alloca ptr, align 8
  %7 = alloca i32, align 4
  store ptr %0, ptr %3, align 8
  store ptr %1, ptr %4, align 8
  %8 = load ptr, ptr %3, align 8
  %9 = getelementptr inbounds %struct.jpeg_compress_struct, ptr %8, i32 0, i32 1
  %10 = load ptr, ptr %9, align 8
  %11 = getelementptr inbounds %struct.jpeg_memory_mgr, ptr %10, i32 0, i32 0
  %12 = load ptr, ptr %11, align 8
  %13 = load ptr, ptr %3, align 8
  %14 = call ptr %12(ptr noundef %13, i32 noundef 1, i64 noundef 120)
  store ptr %14, ptr %5, align 8
  %15 = load ptr, ptr %5, align 8
  %16 = load ptr, ptr %3, align 8
  %17 = getelementptr inbounds %struct.jpeg_compress_struct, ptr %16, i32 0, i32 57
  store ptr %15, ptr %17, align 8
  %18 = load ptr, ptr %5, align 8
  %19 = getelementptr inbounds %struct.my_coef_controller, ptr %18, i32 0, i32 0
  %20 = getelementptr inbounds %struct.jpeg_c_coef_controller, ptr %19, i32 0, i32 0
  store ptr @start_pass_coef, ptr %20, align 8
  %21 = load ptr, ptr %5, align 8
  %22 = getelementptr inbounds %struct.my_coef_controller, ptr %21, i32 0, i32 0
  %23 = getelementptr inbounds %struct.jpeg_c_coef_controller, ptr %22, i32 0, i32 1
  store ptr @compress_output, ptr %23, align 8
  %24 = load ptr, ptr %4, align 8
  %25 = load ptr, ptr %5, align 8
  %26 = getelementptr inbounds %struct.my_coef_controller, ptr %25, i32 0, i32 5
  store ptr %24, ptr %26, align 8
  %27 = load ptr, ptr %3, align 8
  %28 = getelementptr inbounds %struct.jpeg_compress_struct, ptr %27, i32 0, i32 1
  %29 = load ptr, ptr %28, align 8
  %30 = getelementptr inbounds %struct.jpeg_memory_mgr, ptr %29, i32 0, i32 1
  %31 = load ptr, ptr %30, align 8
  %32 = load ptr, ptr %3, align 8
  %33 = call ptr %31(ptr noundef %32, i32 noundef 1, i64 noundef 1280)
  store ptr %33, ptr %6, align 8
  %34 = load ptr, ptr %6, align 8
  call void @jZeroFar(ptr noundef %34, i64 noundef 1280)
  store i32 0, ptr %7, align 4
  br label %35

35:                                               ; preds = %48, %2
  %36 = load i32, ptr %7, align 4
  %37 = icmp slt i32 %36, 10
  br i1 %37, label %38, label %51

38:                                               ; preds = %35
  %39 = load ptr, ptr %6, align 8
  %40 = load i32, ptr %7, align 4
  %41 = sext i32 %40 to i64
  %42 = getelementptr inbounds [64 x i16], ptr %39, i64 %41
  %43 = load ptr, ptr %5, align 8
  %44 = getelementptr inbounds %struct.my_coef_controller, ptr %43, i32 0, i32 6
  %45 = load i32, ptr %7, align 4
  %46 = sext i32 %45 to i64
  %47 = getelementptr inbounds [10 x ptr], ptr %44, i64 0, i64 %46
  store ptr %42, ptr %47, align 8
  br label %48

48:                                               ; preds = %38
  %49 = load i32, ptr %7, align 4
  %50 = add nsw i32 %49, 1
  store i32 %50, ptr %7, align 4
  br label %35, !llvm.loop !10

51:                                               ; preds = %35
  ret void
}

; Function Attrs: nounwind uwtable
define internal void @transencode_master_selection(ptr noundef %0, ptr noundef %1) #0 {
  %3 = alloca ptr, align 8
  %4 = alloca ptr, align 8
  store ptr %0, ptr %3, align 8
  store ptr %1, ptr %4, align 8
  %5 = load ptr, ptr %3, align 8
  %6 = getelementptr inbounds %struct.jpeg_compress_struct, ptr %5, i32 0, i32 9
  store i32 1, ptr %6, align 8
  %7 = load ptr, ptr %3, align 8
  call void @jICMaster(ptr noundef %7, i32 noundef 1)
  %8 = load ptr, ptr %3, align 8
  %9 = getelementptr inbounds %struct.jpeg_compress_struct, ptr %8, i32 0, i32 25
  %10 = load i32, ptr %9, align 4
  %11 = icmp ne i32 %10, 0
  br i1 %11, label %12, label %23

12:                                               ; preds = %2
  %13 = load ptr, ptr %3, align 8
  %14 = getelementptr inbounds %struct.jpeg_compress_struct, ptr %13, i32 0, i32 0
  %15 = load ptr, ptr %14, align 8
  %16 = getelementptr inbounds %struct.jpeg_error_mgr, ptr %15, i32 0, i32 5
  store i32 1, ptr %16, align 8
  %17 = load ptr, ptr %3, align 8
  %18 = getelementptr inbounds %struct.jpeg_compress_struct, ptr %17, i32 0, i32 0
  %19 = load ptr, ptr %18, align 8
  %20 = getelementptr inbounds %struct.jpeg_error_mgr, ptr %19, i32 0, i32 0
  %21 = load ptr, ptr %20, align 8
  %22 = load ptr, ptr %3, align 8
  call void %21(ptr noundef %22)
  br label %33

23:                                               ; preds = %2
  %24 = load ptr, ptr %3, align 8
  %25 = getelementptr inbounds %struct.jpeg_compress_struct, ptr %24, i32 0, i32 40
  %26 = load i32, ptr %25, align 4
  %27 = icmp ne i32 %26, 0
  br i1 %27, label %28, label %30

28:                                               ; preds = %23
  %29 = load ptr, ptr %3, align 8
  call void @jIPHEncoder(ptr noundef %29)
  br label %32

30:                                               ; preds = %23
  %31 = load ptr, ptr %3, align 8
  call void @jIHEncoder(ptr noundef %31)
  br label %32

32:                                               ; preds = %30, %28
  br label %33

33:                                               ; preds = %32, %12
  %34 = load ptr, ptr %3, align 8
  %35 = load ptr, ptr %4, align 8
  call void @transencode_coef_controller(ptr noundef %34, ptr noundef %35)
  %36 = load ptr, ptr %3, align 8
  call void @jIMWriter(ptr noundef %36)
  %37 = load ptr, ptr %3, align 8
  %38 = getelementptr inbounds %struct.jpeg_compress_struct, ptr %37, i32 0, i32 1
  %39 = load ptr, ptr %38, align 8
  %40 = getelementptr inbounds %struct.jpeg_memory_mgr, ptr %39, i32 0, i32 6
  %41 = load ptr, ptr %40, align 8
  %42 = load ptr, ptr %3, align 8
  call void %41(ptr noundef %42)
  %43 = load ptr, ptr %3, align 8
  %44 = getelementptr inbounds %struct.jpeg_compress_struct, ptr %43, i32 0, i32 58
  %45 = load ptr, ptr %44, align 8
  %46 = getelementptr inbounds %struct.jpeg_marker_writer, ptr %45, i32 0, i32 0
  %47 = load ptr, ptr %46, align 8
  %48 = load ptr, ptr %3, align 8
  call void %47(ptr noundef %48)
  ret void
}

; Function Attrs: nounwind uwtable
define hidden void @jWrtCoefs(ptr noundef %0, ptr noundef %1) #0 {
  %3 = alloca ptr, align 8
  %4 = alloca ptr, align 8
  store ptr %0, ptr %3, align 8
  store ptr %1, ptr %4, align 8
  %5 = load ptr, ptr %3, align 8
  %6 = getelementptr inbounds %struct.jpeg_compress_struct, ptr %5, i32 0, i32 5
  %7 = load i32, ptr %6, align 4
  %8 = icmp ne i32 %7, 100
  br i1 %8, label %9, label %28

9:                                                ; preds = %2
  %10 = load ptr, ptr %3, align 8
  %11 = getelementptr inbounds %struct.jpeg_compress_struct, ptr %10, i32 0, i32 0
  %12 = load ptr, ptr %11, align 8
  %13 = getelementptr inbounds %struct.jpeg_error_mgr, ptr %12, i32 0, i32 5
  store i32 20, ptr %13, align 8
  %14 = load ptr, ptr %3, align 8
  %15 = getelementptr inbounds %struct.jpeg_compress_struct, ptr %14, i32 0, i32 5
  %16 = load i32, ptr %15, align 4
  %17 = load ptr, ptr %3, align 8
  %18 = getelementptr inbounds %struct.jpeg_compress_struct, ptr %17, i32 0, i32 0
  %19 = load ptr, ptr %18, align 8
  %20 = getelementptr inbounds %struct.jpeg_error_mgr, ptr %19, i32 0, i32 6
  %21 = getelementptr inbounds [8 x i32], ptr %20, i64 0, i64 0
  store i32 %16, ptr %21, align 4
  %22 = load ptr, ptr %3, align 8
  %23 = getelementptr inbounds %struct.jpeg_compress_struct, ptr %22, i32 0, i32 0
  %24 = load ptr, ptr %23, align 8
  %25 = getelementptr inbounds %struct.jpeg_error_mgr, ptr %24, i32 0, i32 0
  %26 = load ptr, ptr %25, align 8
  %27 = load ptr, ptr %3, align 8
  call void %26(ptr noundef %27)
  br label %28

28:                                               ; preds = %9, %2
  %29 = load ptr, ptr %3, align 8
  call void @jSuppressTables(ptr noundef %29, i32 noundef 0)
  %30 = load ptr, ptr %3, align 8
  %31 = getelementptr inbounds %struct.jpeg_compress_struct, ptr %30, i32 0, i32 0
  %32 = load ptr, ptr %31, align 8
  %33 = getelementptr inbounds %struct.jpeg_error_mgr, ptr %32, i32 0, i32 4
  %34 = load ptr, ptr %33, align 8
  %35 = load ptr, ptr %3, align 8
  call void %34(ptr noundef %35)
  %36 = load ptr, ptr %3, align 8
  %37 = getelementptr inbounds %struct.jpeg_compress_struct, ptr %36, i32 0, i32 6
  %38 = load ptr, ptr %37, align 8
  %39 = getelementptr inbounds %struct.jpeg_destination_mgr, ptr %38, i32 0, i32 2
  %40 = load ptr, ptr %39, align 8
  %41 = load ptr, ptr %3, align 8
  call void %40(ptr noundef %41)
  %42 = load ptr, ptr %3, align 8
  %43 = load ptr, ptr %4, align 8
  call void @transencode_master_selection(ptr noundef %42, ptr noundef %43)
  %44 = load ptr, ptr %3, align 8
  %45 = getelementptr inbounds %struct.jpeg_compress_struct, ptr %44, i32 0, i32 39
  store i32 0, ptr %45, align 8
  %46 = load ptr, ptr %3, align 8
  %47 = getelementptr inbounds %struct.jpeg_compress_struct, ptr %46, i32 0, i32 5
  store i32 103, ptr %47, align 4
  ret void
}