; Function Attrs: nounwind uwtable
define hidden void @jWrtCoefs(ptr noundef %0, ptr noundef %1) local_unnamed_addr #0 {
  %3 = getelementptr inbounds i8, ptr %0, i64 36
  %4 = load i32, ptr %3, align 4
  %.not = icmp eq i32 %4, 100
  br i1 %.not, label %13, label %5

5:                                                ; preds = %2
  %6 = load ptr, ptr %0, align 8
  %7 = getelementptr inbounds i8, ptr %6, i64 40
  store i32 20, ptr %7, align 8
  %8 = load i32, ptr %3, align 4
  %9 = load ptr, ptr %0, align 8
  %10 = getelementptr inbounds i8, ptr %9, i64 44
  store i32 %8, ptr %10, align 4
  %11 = load ptr, ptr %0, align 8
  %12 = load ptr, ptr %11, align 8
  tail call void %12(ptr noundef nonnull %0) #3
  br label %13

13:                                               ; preds = %5, %2
  tail call void @jSuppressTables(ptr noundef nonnull %0, i32 noundef 0) #3
  %14 = load ptr, ptr %0, align 8
  %15 = getelementptr inbounds i8, ptr %14, i64 32
  %16 = load ptr, ptr %15, align 8
  tail call void %16(ptr noundef nonnull %0) #3
  %17 = getelementptr inbounds i8, ptr %0, i64 40
  %18 = load ptr, ptr %17, align 8
  %19 = getelementptr inbounds i8, ptr %18, i64 16
  %20 = load ptr, ptr %19, align 8
  tail call void %20(ptr noundef nonnull %0) #3
  %21 = getelementptr inbounds i8, ptr %0, i64 56
  store i32 1, ptr %21, align 8
  tail call void @jICMaster(ptr noundef nonnull %0, i32 noundef 1) #3
  %22 = getelementptr inbounds i8, ptr %0, i64 260
  %23 = load i32, ptr %22, align 4
  %.not.i = icmp eq i32 %23, 0
  br i1 %.not.i, label %29, label %24

24:                                               ; preds = %13
  %25 = load ptr, ptr %0, align 8
  %26 = getelementptr inbounds i8, ptr %25, i64 40
  store i32 1, ptr %26, align 8
  %27 = load ptr, ptr %0, align 8
  %28 = load ptr, ptr %27, align 8
  tail call void %28(ptr noundef nonnull %0) #3
  br label %34

29:                                               ; preds = %13
  %30 = getelementptr inbounds i8, ptr %0, i64 308
  %31 = load i32, ptr %30, align 4
  %.not16.i = icmp eq i32 %31, 0
  br i1 %.not16.i, label %33, label %32

32:                                               ; preds = %29
  tail call void @jIPHEncoder(ptr noundef nonnull %0) #3
  br label %34

33:                                               ; preds = %29
  tail call void @jIHEncoder(ptr noundef nonnull %0) #3
  br label %34

34:                                               ; preds = %33, %32, %24
  %35 = getelementptr inbounds i8, ptr %0, i64 8
  %36 = load ptr, ptr %35, align 8
  %37 = load ptr, ptr %36, align 8
  %38 = tail call ptr %37(ptr noundef nonnull %0, i32 noundef 1, i64 noundef 120) #3
  %39 = getelementptr inbounds i8, ptr %0, i64 456
  store ptr %38, ptr %39, align 8
  store ptr @start_pass_coef, ptr %38, align 8
  %40 = getelementptr inbounds i8, ptr %38, i64 8
  store ptr @compress_output, ptr %40, align 8
  %41 = getelementptr inbounds i8, ptr %38, i64 32
  store ptr %1, ptr %41, align 8
  %42 = load ptr, ptr %35, align 8
  %43 = getelementptr inbounds i8, ptr %42, i64 8
  %44 = load ptr, ptr %43, align 8
  %45 = tail call ptr %44(ptr noundef nonnull %0, i32 noundef 1, i64 noundef 1280) #3
  tail call void @jZeroFar(ptr noundef %45, i64 noundef 1280) #3
  %46 = getelementptr inbounds i8, ptr %38, i64 40
  br label %47

47:                                               ; preds = %47, %34
  %indvars.iv.i.i = phi i64 [ 0, %34 ], [ %indvars.iv.next.i.i, %47 ]
  %48 = getelementptr inbounds [64 x i16], ptr %45, i64 %indvars.iv.i.i
  %49 = getelementptr inbounds [10 x ptr], ptr %46, i64 0, i64 %indvars.iv.i.i
  store ptr %48, ptr %49, align 8
  %indvars.iv.next.i.i = add nuw nsw i64 %indvars.iv.i.i, 1
  %exitcond.not.i.i = icmp eq i64 %indvars.iv.next.i.i, 10
  br i1 %exitcond.not.i.i, label %transencode_master_selection.exit, label %47, !llvm.loop !6

transencode_master_selection.exit:                ; preds = %47
  tail call void @jIMWriter(ptr noundef %0) #3
  %50 = load ptr, ptr %35, align 8
  %51 = getelementptr inbounds i8, ptr %50, i64 48
  %52 = load ptr, ptr %51, align 8
  tail call void %52(ptr noundef %0) #3
  %53 = getelementptr inbounds i8, ptr %0, i64 464
  %54 = load ptr, ptr %53, align 8
  %55 = load ptr, ptr %54, align 8
  tail call void %55(ptr noundef %0) #3
  %56 = getelementptr inbounds i8, ptr %0, i64 304
  store i32 0, ptr %56, align 8
  store i32 103, ptr %3, align 4
  ret void
}